Certificate:
    Data:
        Version: 3 (0x2)
        Serial Number: 2 (0x2)
    Signature Algorithm: sha256WithRSAEncryption
        Issuer: C=CN, ST=BJ, L=BeiJing, O=WEIZUCHE, OU=FEEZU, CN=WEIZUCHE CA/name=EasyRSA/emailAddress=shidg@feezu.cn
        Validity
            Not Before: Nov 14 05:56:29 2016 GMT
            Not After : Nov 12 05:56:29 2026 GMT
        Subject: C=CN, ST=BJ, L=BeiJing, O=WEIZUCHE, OU=FEEZU, CN=client/name=EasyRSA/emailAddress=shidg@feezu.cn
        Subject Public Key Info:
            Public Key Algorithm: rsaEncryption
                Public-Key: (2048 bit)
                Modulus:
                    00:c4:7d:27:67:3d:dc:a6:6a:f7:82:86:29:f5:5c:
                    46:16:d3:2e:f1:2b:91:a2:0d:ae:23:76:7e:d3:44:
                    89:0a:f8:24:cd:76:e1:26:5d:70:71:9a:c0:d7:d7:
                    d1:a4:bc:4d:3b:52:5c:46:35:a9:74:7f:59:ef:89:
                    a3:b0:1c:96:4d:ca:79:cf:c8:8b:61:6a:10:a4:8a:
                    e0:91:16:2b:46:ea:69:66:17:98:c3:e9:a7:f1:3f:
                    31:61:14:c3:89:a5:f1:91:da:47:06:89:af:a9:27:
                    7e:a9:4a:33:2a:12:46:ae:17:09:35:ee:26:8e:42:
                    42:26:af:d7:b7:1a:9d:82:37:f8:cc:6a:a0:7b:cb:
                    51:db:f8:22:c5:ae:1f:6e:fe:98:3a:43:f4:be:70:
                    01:66:07:86:f4:ab:5e:81:06:e0:5d:f7:50:b6:0a:
                    21:47:45:f5:90:9d:53:c8:93:71:e1:4f:5e:d2:5d:
                    87:8a:9d:39:cf:3d:1d:98:28:75:35:1d:d8:40:b7:
                    3e:54:50:40:8f:78:0d:43:ca:56:29:94:89:af:16:
                    61:0e:cd:95:7e:84:3a:6e:00:12:cb:66:e9:fd:1f:
                    c7:f5:fe:35:d6:b3:c3:a5:09:5f:ac:dc:a0:36:20:
                    71:8a:31:3c:d1:a0:6a:25:c9:5d:a0:98:d0:54:b4:
                    a1:ed
                Exponent: 65537 (0x10001)
        X509v3 extensions:
            X509v3 Basic Constraints: 
                CA:FALSE
            Netscape Comment: 
                Easy-RSA Generated Certificate
            X509v3 Subject Key Identifier: 
                4D:A3:47:AE:EF:23:EF:4D:3D:DF:93:52:CF:08:68:20:F1:67:A9:3F
            X509v3 Authority Key Identifier: 
                keyid:44:E9:6E:E6:9B:20:2F:B9:28:0B:4C:CE:35:B9:D8:8E:15:01:D4:97
                DirName:/C=CN/ST=BJ/L=BeiJing/O=WEIZUCHE/OU=FEEZU/CN=WEIZUCHE CA/name=EasyRSA/emailAddress=shidg@feezu.cn
                serial:C9:B5:D7:8F:71:D0:72:7A

            X509v3 Extended Key Usage: 
                TLS Web Client Authentication
            X509v3 Key Usage: 
                Digital Signature
    Signature Algorithm: sha256WithRSAEncryption
         6e:81:fe:a7:44:b2:9b:44:e7:58:0d:ff:1f:e1:33:ae:f9:b5:
         97:75:28:f2:66:71:c0:59:7d:50:19:a9:c3:73:68:e8:f7:92:
         cd:ec:30:d7:ed:5f:30:0a:a0:12:3d:54:c9:d2:98:9b:7d:69:
         a7:72:f7:49:a2:b3:90:ca:5d:9f:28:f7:a4:46:b0:cf:02:08:
         8e:84:95:f0:f5:d2:5b:7e:ab:88:ed:1a:2d:1a:87:f8:50:d7:
         d6:df:f6:c1:d1:a5:92:0a:6d:2d:07:36:30:e6:94:8e:06:ed:
         ac:59:0f:b8:69:8a:05:5c:e2:53:10:1a:b5:43:2d:87:27:a4:
         5e:1b:48:4f:cf:13:0c:30:d2:0e:98:88:7d:83:b3:6e:5b:65:
         4f:5a:9f:34:fb:99:6c:0d:2a:29:8c:14:73:54:cf:10:f8:b0:
         12:40:1f:d8:e8:34:bc:4e:53:89:4d:f6:c4:14:8c:c5:31:69:
         87:d3:7a:26:0d:52:a5:58:19:ed:03:10:77:10:bf:1e:b8:32:
         0e:5d:08:0d:26:97:b1:d3:79:18:1a:cf:0c:06:d9:3d:56:c6:
         3a:73:42:af:83:2d:c2:4c:c3:41:50:32:84:01:f0:ab:98:f2:
         45:b6:43:67:b2:9c:62:92:5b:45:0e:29:5d:af:8b:a1:48:af:
         75:0b:9f:38
-----BEGIN CERTIFICATE-----
MIIE8zCCA9ugAwIBAgIBAjANBgkqhkiG9w0BAQsFADCBljELMAkGA1UEBhMCQ04x
CzAJBgNVBAgTAkJKMRAwDgYDVQQHEwdCZWlKaW5nMREwDwYDVQQKEwhXRUlaVUNI
RTEOMAwGA1UECxMFRkVFWlUxFDASBgNVBAMTC1dFSVpVQ0hFIENBMRAwDgYDVQQp
EwdFYXN5UlNBMR0wGwYJKoZIhvcNAQkBFg5zaGlkZ0BmZWV6dS5jbjAeFw0xNjEx
MTQwNTU2MjlaFw0yNjExMTIwNTU2MjlaMIGRMQswCQYDVQQGEwJDTjELMAkGA1UE
CBMCQkoxEDAOBgNVBAcTB0JlaUppbmcxETAPBgNVBAoTCFdFSVpVQ0hFMQ4wDAYD
VQQLEwVGRUVaVTEPMA0GA1UEAxMGY2xpZW50MRAwDgYDVQQpEwdFYXN5UlNBMR0w
GwYJKoZIhvcNAQkBFg5zaGlkZ0BmZWV6dS5jbjCCASIwDQYJKoZIhvcNAQEBBQAD
ggEPADCCAQoCggEBAMR9J2c93KZq94KGKfVcRhbTLvErkaINriN2ftNEiQr4JM12
4SZdcHGawNfX0aS8TTtSXEY1qXR/We+Jo7Aclk3Kec/Ii2FqEKSK4JEWK0bqaWYX
mMPpp/E/MWEUw4ml8ZHaRwaJr6knfqlKMyoSRq4XCTXuJo5CQiav17canYI3+Mxq
oHvLUdv4IsWuH27+mDpD9L5wAWYHhvSrXoEG4F33ULYKIUdF9ZCdU8iTceFPXtJd
h4qdOc89HZgodTUd2EC3PlRQQI94DUPKVimUia8WYQ7NlX6EOm4AEstm6f0fx/X+
Ndazw6UJX6zcoDYgcYoxPNGgaiXJXaCY0FS0oe0CAwEAAaOCAU0wggFJMAkGA1Ud
EwQCMAAwLQYJYIZIAYb4QgENBCAWHkVhc3ktUlNBIEdlbmVyYXRlZCBDZXJ0aWZp
Y2F0ZTAdBgNVHQ4EFgQUTaNHru8j700935NSzwhoIPFnqT8wgcsGA1UdIwSBwzCB
wIAUROlu5psgL7koC0zONbnYjhUB1JehgZykgZkwgZYxCzAJBgNVBAYTAkNOMQsw
CQYDVQQIEwJCSjEQMA4GA1UEBxMHQmVpSmluZzERMA8GA1UEChMIV0VJWlVDSEUx
DjAMBgNVBAsTBUZFRVpVMRQwEgYDVQQDEwtXRUlaVUNIRSBDQTEQMA4GA1UEKRMH
RWFzeVJTQTEdMBsGCSqGSIb3DQEJARYOc2hpZGdAZmVlenUuY26CCQDJtdePcdBy
ejATBgNVHSUEDDAKBggrBgEFBQcDAjALBgNVHQ8EBAMCB4AwDQYJKoZIhvcNAQEL
BQADggEBAG6B/qdEsptE51gN/x/hM675tZd1KPJmccBZfVAZqcNzaOj3ks3sMNft
XzAKoBI9VMnSmJt9aady90mis5DKXZ8o96RGsM8CCI6ElfD10lt+q4jtGi0ah/hQ
19bf9sHRpZIKbS0HNjDmlI4G7axZD7hpigVc4lMQGrVDLYcnpF4bSE/PEwww0g6Y
iH2Ds25bZU9anzT7mWwNKimMFHNUzxD4sBJAH9joNLxOU4lN9sQUjMUxaYfTeiYN
UqVYGe0DEHcQvx64Mg5dCA0ml7HTeRgazwwG2T1WxjpzQq+DLcJMw0FQMoQB8KuY
8kW2Q2eynGKSW0UOKV2vi6FIr3ULnzg=
-----END CERTIFICATE-----
